target datalayout = "e-m:e-p270:32:32-p271:32:32-p272:64:64-i64:64-i128:128-f80:128-n8:16:32:64-S128"
target triple = "x86_64-pc-linux-gnu"

%struct.CeltFrame = type { ptr, [4 x ptr], [4 x ptr], ptr, [2 x %struct.CeltBlock], ptr, %struct.OpusDSP, i32, i32, i32, i32, i32, i32, i32, i32, i32, i32, i32, i32, [21 x i32], i32, i32, i32, i32, i32, i32, i32, i32, i32, i32, i32, i32, i32, float, i32, i32, i32, [21 x i32], [21 x i32], [21 x i32], [21 x i32], [21 x i32], [12 x i8] }
%struct.CeltBlock = type { [21 x float], [21 x float], [21 x float], [2 x [21 x float]], [21 x i8], [7 x i8], [2048 x float], [960 x float], [128 x float], [960 x float], i32, [3 x float], i32, [3 x float], i32, [3 x float], float, [12 x i8] }
%struct.OpusDSP = type { ptr, ptr }
%struct.OpusRangeCoder = type { %struct.GetBitContext, %struct.RawBitsContext, i32, i32, i32, [1287 x i8], ptr, i32, i32, i32 }
%struct.GetBitContext = type { ptr, ptr, i32, i32, i32 }
%struct.RawBitsContext = type { ptr, i32, i32, i32 }

@ff_celt_model_tapset = external hidden constant [0 x i16], align 2
@ff_log2_tab = external constant [256 x i8], align 16
@ff_celt_coarse_energy_dist = external hidden constant [4 x [2 x [42 x i8]]], align 16
@ff_celt_alpha_coef = external hidden constant [0 x float], align 4
@ff_celt_beta_coef = external hidden constant [0 x float], align 4

; Function Attrs: alwaysinline nounwind willreturn memory(none) uwtable
define internal i32 @ff_log2_c(i32 noundef %0) #4 {
  %2 = alloca i32, align 4
  %3 = alloca i32, align 4
  store i32 %0, ptr %2, align 4, !tbaa !52
  call void @llvm.lifetime.start.p0(i64 4, ptr %3) #11
  store i32 0, ptr %3, align 4, !tbaa !52
  %4 = load i32, ptr %2, align 4, !tbaa !52
  %5 = and i32 %4, -65536
  %6 = icmp ne i32 %5, 0
  br i1 %6, label %7, label %12

7:                                                ; preds = %1
  %8 = load i32, ptr %2, align 4, !tbaa !52
  %9 = lshr i32 %8, 16
  store i32 %9, ptr %2, align 4, !tbaa !52
  %10 = load i32, ptr %3, align 4, !tbaa !52
  %11 = add nsw i32 %10, 16
  store i32 %11, ptr %3, align 4, !tbaa !52
  br label %12

12:                                               ; preds = %7, %1
  %13 = load i32, ptr %2, align 4, !tbaa !52
  %14 = and i32 %13, 65280
  %15 = icmp ne i32 %14, 0
  br i1 %15, label %16, label %21

16:                                               ; preds = %12
  %17 = load i32, ptr %2, align 4, !tbaa !52
  %18 = lshr i32 %17, 8
  store i32 %18, ptr %2, align 4, !tbaa !52
  %19 = load i32, ptr %3, align 4, !tbaa !52
  %20 = add nsw i32 %19, 8
  store i32 %20, ptr %3, align 4, !tbaa !52
  br label %21

21:                                               ; preds = %16, %12
  %22 = load i32, ptr %2, align 4, !tbaa !52
  %23 = zext i32 %22 to i64
  %24 = getelementptr inbounds nuw [256 x i8], ptr @ff_log2_tab, i64 0, i64 %23
  %25 = load i8, ptr %24, align 1, !tbaa !51
  %26 = zext i8 %25 to i32
  %27 = load i32, ptr %3, align 4, !tbaa !52
  %28 = add nsw i32 %27, %26
  store i32 %28, ptr %3, align 4, !tbaa !52
  %29 = load i32, ptr %3, align 4, !tbaa !52
  call void @llvm.lifetime.end.p0(i64 4, ptr %3) #11
  ret i32 %29
}

; Function Attrs: alwaysinline nounwind willreturn memory(none) uwtable
define internal i32 @av_clip_c(i32 noundef %0, i32 noundef %1, i32 noundef %2) #4 {
  %4 = alloca i32, align 4
  %5 = alloca i32, align 4
  %6 = alloca i32, align 4
  %7 = alloca i32, align 4
  store i32 %0, ptr %5, align 4, !tbaa !52
  store i32 %1, ptr %6, align 4, !tbaa !52
  store i32 %2, ptr %7, align 4, !tbaa !52
  %8 = load i32, ptr %5, align 4, !tbaa !52
  %9 = load i32, ptr %6, align 4, !tbaa !52
  %10 = icmp slt i32 %8, %9
  br i1 %10, label %11, label %13

11:                                               ; preds = %3
  %12 = load i32, ptr %6, align 4, !tbaa !52
  store i32 %12, ptr %4, align 4
  br label %21

13:                                               ; preds = %3
  %14 = load i32, ptr %5, align 4, !tbaa !52
  %15 = load i32, ptr %7, align 4, !tbaa !52
  %16 = icmp sgt i32 %14, %15
  br i1 %16, label %17, label %19

17:                                               ; preds = %13
  %18 = load i32, ptr %7, align 4, !tbaa !52
  store i32 %18, ptr %4, align 4
  br label %21

19:                                               ; preds = %13
  %20 = load i32, ptr %5, align 4, !tbaa !52
  store i32 %20, ptr %4, align 4
  br label %21

21:                                               ; preds = %19, %17, %11
  %22 = load i32, ptr %4, align 4
  ret i32 %22
}

; Function Attrs: alwaysinline nounwind uwtable
define internal i32 @opus_rc_tell(ptr noundef %0) #8 {
  %2 = alloca ptr, align 8
  store ptr %0, ptr %2, align 8, !tbaa !109
  %3 = load ptr, ptr %2, align 8, !tbaa !109
  %4 = getelementptr inbounds nuw %struct.OpusRangeCoder, ptr %3, i32 0, i32 4
  %5 = load i32, ptr %4, align 8, !tbaa !158
  %6 = load ptr, ptr %2, align 8, !tbaa !109
  %7 = getelementptr inbounds nuw %struct.OpusRangeCoder, ptr %6, i32 0, i32 2
  %8 = load i32, ptr %7, align 8, !tbaa !162
  %9 = call i32 @ff_log2_c(i32 noundef %8) #12
  %10 = sub i32 %5, %9
  %11 = sub i32 %10, 1
  ret i32 %11
}

; Function Attrs: nounwind uwtable
define internal void @exp_quant_coarse(ptr noundef %0, ptr noundef %1, ptr noundef %2, i32 noundef %3) #1 {
  %5 = alloca ptr, align 8
  %6 = alloca ptr, align 8
  %7 = alloca ptr, align 8
  %8 = alloca i32, align 4
  %9 = alloca float, align 4
  %10 = alloca float, align 4
  %11 = alloca [2 x float], align 4
  %12 = alloca ptr, align 8
  %13 = alloca i32, align 4
  %14 = alloca i32, align 4
  %15 = alloca i32, align 4
  %16 = alloca ptr, align 8
  %17 = alloca i32, align 4
  %18 = alloca float, align 4
  %19 = alloca float, align 4
  %20 = alloca i32, align 4
  store ptr %0, ptr %5, align 8, !tbaa !109
  store ptr %1, ptr %6, align 8, !tbaa !110
  store ptr %2, ptr %7, align 8, !tbaa !143
  store i32 %3, ptr %8, align 4, !tbaa !52
  call void @llvm.lifetime.start.p0(i64 4, ptr %9) #11
  call void @llvm.lifetime.start.p0(i64 4, ptr %10) #11
  call void @llvm.lifetime.start.p0(i64 8, ptr %11) #11
  call void @llvm.memset.p0.i64(ptr align 4 %11, i8 0, i64 8, i1 false)
  call void @llvm.lifetime.start.p0(i64 8, ptr %12) #11
  %21 = load ptr, ptr %6, align 8, !tbaa !110
  %22 = getelementptr inbounds nuw %struct.CeltFrame, ptr %21, i32 0, i32 10
  %23 = load i32, ptr %22, align 4, !tbaa !116
  %24 = zext i32 %23 to i64
  %25 = getelementptr inbounds nuw [4 x [2 x [42 x i8]]], ptr @ff_celt_coarse_energy_dist, i64 0, i64 %24
  %26 = load i32, ptr %8, align 4, !tbaa !52
  %27 = sext i32 %26 to i64
  %28 = getelementptr inbounds [2 x [42 x i8]], ptr %25, i64 0, i64 %27
  %29 = getelementptr inbounds [42 x i8], ptr %28, i64 0, i64 0
  store ptr %29, ptr %12, align 8, !tbaa !92
  %30 = load ptr, ptr %5, align 8, !tbaa !109
  %31 = call i32 @opus_rc_tell(ptr noundef %30)
  %32 = add i32 %31, 3
  %33 = load ptr, ptr %6, align 8, !tbaa !110
  %34 = getelementptr inbounds nuw %struct.CeltFrame, ptr %33, i32 0, i32 34
  %35 = load i32, ptr %34, align 4, !tbaa !88
  %36 = icmp ule i32 %32, %35
  br i1 %36, label %37, label %40

37:                                               ; preds = %4
  %38 = load ptr, ptr %5, align 8, !tbaa !109
  %39 = load i32, ptr %8, align 4, !tbaa !52
  call void @ff_opus_rc_enc_log(ptr noundef %38, i32 noundef %39, i32 noundef 3)
  br label %41

40:                                               ; preds = %4
  store i32 0, ptr %8, align 4, !tbaa !52
  br label %41

41:                                               ; preds = %40, %37
  %42 = load i32, ptr %8, align 4, !tbaa !52
  %43 = icmp ne i32 %42, 0
  br i1 %43, label %44, label %45

44:                                               ; preds = %41
  store float 0.000000e+00, ptr %9, align 4, !tbaa !58
  store float 0x3FEB334000000000, ptr %10, align 4, !tbaa !58
  br label %58

45:                                               ; preds = %41
  %46 = load ptr, ptr %6, align 8, !tbaa !110
  %47 = getelementptr inbounds nuw %struct.CeltFrame, ptr %46, i32 0, i32 10
  %48 = load i32, ptr %47, align 4, !tbaa !116
  %49 = zext i32 %48 to i64
  %50 = getelementptr inbounds nuw [0 x float], ptr @ff_celt_alpha_coef, i64 0, i64 %49
  %51 = load float, ptr %50, align 4, !tbaa !58
  store float %51, ptr %9, align 4, !tbaa !58
  %52 = load ptr, ptr %6, align 8, !tbaa !110
  %53 = getelementptr inbounds nuw %struct.CeltFrame, ptr %52, i32 0, i32 10
  %54 = load i32, ptr %53, align 4, !tbaa !116
  %55 = zext i32 %54 to i64
  %56 = getelementptr inbounds nuw [0 x float], ptr @ff_celt_beta_coef, i64 0, i64 %55
  %57 = load float, ptr %56, align 4, !tbaa !58
  store float %57, ptr %10, align 4, !tbaa !58
  br label %58

58:                                               ; preds = %45, %44
  call void @llvm.lifetime.start.p0(i64 4, ptr %13) #11
  %59 = load ptr, ptr %6, align 8, !tbaa !110
  %60 = getelementptr inbounds nuw %struct.CeltFrame, ptr %59, i32 0, i32 11
  %61 = load i32, ptr %60, align 8, !tbaa !115
  store i32 %61, ptr %13, align 4, !tbaa !52
  br label %62

62:                                               ; preds = %197, %58
  %63 = load i32, ptr %13, align 4, !tbaa !52
  %64 = load ptr, ptr %6, align 8, !tbaa !110
  %65 = getelementptr inbounds nuw %struct.CeltFrame, ptr %64, i32 0, i32 12
  %66 = load i32, ptr %65, align 4, !tbaa !164
  %67 = icmp slt i32 %63, %66
  br i1 %67, label %69, label %68

68:                                               ; preds = %62
  store i32 2, ptr %14, align 4
  call void @llvm.lifetime.end.p0(i64 4, ptr %13) #11
  br label %200

69:                                               ; preds = %62
  call void @llvm.lifetime.start.p0(i64 4, ptr %15) #11
  store i32 0, ptr %15, align 4, !tbaa !52
  br label %70

70:                                               ; preds = %193, %69
  %71 = load i32, ptr %15, align 4, !tbaa !52
  %72 = load ptr, ptr %6, align 8, !tbaa !110
  %73 = getelementptr inbounds nuw %struct.CeltFrame, ptr %72, i32 0, i32 7
  %74 = load i32, ptr %73, align 8, !tbaa !120
  %75 = icmp slt i32 %71, %74
  br i1 %75, label %77, label %76

76:                                               ; preds = %70
  store i32 5, ptr %14, align 4
  call void @llvm.lifetime.end.p0(i64 4, ptr %15) #11
  br label %196

77:                                               ; preds = %70
  call void @llvm.lifetime.start.p0(i64 8, ptr %16) #11
  %78 = load ptr, ptr %6, align 8, !tbaa !110
  %79 = getelementptr inbounds nuw %struct.CeltFrame, ptr %78, i32 0, i32 4
  %80 = load i32, ptr %15, align 4, !tbaa !52
  %81 = sext i32 %80 to i64
  %82 = getelementptr inbounds [2 x %struct.CeltBlock], ptr %79, i64 0, i64 %81
  store ptr %82, ptr %16, align 8, !tbaa !121
  call void @llvm.lifetime.start.p0(i64 4, ptr %17) #11
  %83 = load ptr, ptr %6, align 8, !tbaa !110
  %84 = getelementptr inbounds nuw %struct.CeltFrame, ptr %83, i32 0, i32 34
  %85 = load i32, ptr %84, align 4, !tbaa !88
  %86 = load ptr, ptr %5, align 8, !tbaa !109
  %87 = call i32 @opus_rc_tell(ptr noundef %86)
  %88 = sub i32 %85, %87
  store i32 %88, ptr %17, align 4, !tbaa !52
  call void @llvm.lifetime.start.p0(i64 4, ptr %18) #11
  %89 = load ptr, ptr %7, align 8, !tbaa !143
  %90 = load i32, ptr %15, align 4, !tbaa !52
  %91 = sext i32 %90 to i64
  %92 = getelementptr inbounds [21 x float], ptr %89, i64 %91
  %93 = load i32, ptr %13, align 4, !tbaa !52
  %94 = sext i32 %93 to i64
  %95 = getelementptr inbounds [21 x float], ptr %92, i64 0, i64 %94
  %96 = load float, ptr %95, align 4, !tbaa !58
  %97 = fcmp nsz ogt float -9.000000e+00, %96
  br i1 %97, label %98, label %99

98:                                               ; preds = %77
  br label %108

99:                                               ; preds = %77
  %100 = load ptr, ptr %7, align 8, !tbaa !143
  %101 = load i32, ptr %15, align 4, !tbaa !52
  %102 = sext i32 %101 to i64
  %103 = getelementptr inbounds [21 x float], ptr %100, i64 %102
  %104 = load i32, ptr %13, align 4, !tbaa !52
  %105 = sext i32 %104 to i64
  %106 = getelementptr inbounds [21 x float], ptr %103, i64 0, i64 %105
  %107 = load float, ptr %106, align 4, !tbaa !58
  br label %108

108:                                              ; preds = %99, %98
  %109 = phi nsz float [ -9.000000e+00, %98 ], [ %107, %99 ]
  store float %109, ptr %18, align 4, !tbaa !58
  call void @llvm.lifetime.start.p0(i64 4, ptr %19) #11
  %110 = load ptr, ptr %16, align 8, !tbaa !121
  %111 = getelementptr inbounds nuw %struct.CeltBlock, ptr %110, i32 0, i32 0
  %112 = load i32, ptr %13, align 4, !tbaa !52
  %113 = sext i32 %112 to i64
  %114 = getelementptr inbounds [21 x float], ptr %111, i64 0, i64 %113
  %115 = load float, ptr %114, align 4, !tbaa !58
  %116 = load i32, ptr %15, align 4, !tbaa !52
  %117 = sext i32 %116 to i64
  %118 = getelementptr inbounds [2 x float], ptr %11, i64 0, i64 %117
  %119 = load float, ptr %118, align 4, !tbaa !58
  %120 = fsub nsz float %115, %119
  %121 = load float, ptr %18, align 4, !tbaa !58
  %122 = load float, ptr %9, align 4, !tbaa !58
  %123 = fneg nsz float %121
  %124 = call nsz float @llvm.fmuladd.f32(float %123, float %122, float %120)
  store float %124, ptr %19, align 4, !tbaa !58
  call void @llvm.lifetime.start.p0(i64 4, ptr %20) #11
  %125 = load float, ptr %19, align 4, !tbaa !58
  %126 = call i64 @llvm.lrint.i64.f32(float %125)
  %127 = trunc i64 %126 to i32
  store i32 %127, ptr %20, align 4, !tbaa !52
  %128 = load i32, ptr %17, align 4, !tbaa !52
  %129 = icmp sge i32 %128, 15
  br i1 %129, label %130, label %149

130:                                              ; preds = %108
  %131 = load ptr, ptr %5, align 8, !tbaa !109
  %132 = load ptr, ptr %12, align 8, !tbaa !92
  %133 = load i32, ptr %13, align 4, !tbaa !52
  %134 = shl i32 %133, 1
  %135 = sext i32 %134 to i64
  %136 = getelementptr inbounds i8, ptr %132, i64 %135
  %137 = load i8, ptr %136, align 1, !tbaa !51
  %138 = zext i8 %137 to i32
  %139 = shl i32 %138, 7
  %140 = load ptr, ptr %12, align 8, !tbaa !92
  %141 = load i32, ptr %13, align 4, !tbaa !52
  %142 = shl i32 %141, 1
  %143 = add nsw i32 %142, 1
  %144 = sext i32 %143 to i64
  %145 = getelementptr inbounds i8, ptr %140, i64 %144
  %146 = load i8, ptr %145, align 1, !tbaa !51
  %147 = zext i8 %146 to i32
  %148 = shl i32 %147, 6
  call void @ff_opus_rc_enc_laplace(ptr noundef %131, ptr noundef %20, i32 noundef %139, i32 noundef %148)
  br label %175

149:                                              ; preds = %108
  %150 = load i32, ptr %17, align 4, !tbaa !52
  %151 = icmp sge i32 %150, 2
  br i1 %151, label %152, label %163

152:                                              ; preds = %149
  %153 = load i32, ptr %20, align 4, !tbaa !52
  %154 = call i32 @av_clip_c(i32 noundef %153, i32 noundef -1, i32 noundef 1) #12
  store i32 %154, ptr %20, align 4, !tbaa !52
  %155 = load ptr, ptr %5, align 8, !tbaa !109
  %156 = load i32, ptr %20, align 4, !tbaa !52
  %157 = mul nsw i32 2, %156
  %158 = load i32, ptr %20, align 4, !tbaa !52
  %159 = icmp slt i32 %158, 0
  %160 = zext i1 %159 to i32
  %161 = mul nsw i32 3, %160
  %162 = add nsw i32 %157, %161
  call void @ff_opus_rc_enc_cdf(ptr noundef %155, i32 noundef %162, ptr noundef @ff_celt_model_tapset)
  br label %174

163:                                              ; preds = %149
  %164 = load i32, ptr %17, align 4, !tbaa !52
  %165 = icmp sge i32 %164, 1
  br i1 %165, label %166, label %172

166:                                              ; preds = %163
  %167 = load i32, ptr %20, align 4, !tbaa !52
  %168 = call i32 @av_clip_c(i32 noundef %167, i32 noundef -1, i32 noundef 0) #12
  store i32 %168, ptr %20, align 4, !tbaa !52
  %169 = load ptr, ptr %5, align 8, !tbaa !109
  %170 = load i32, ptr %20, align 4, !tbaa !52
  %171 = and i32 %170, 1
  call void @ff_opus_rc_enc_log(ptr noundef %169, i32 noundef %171, i32 noundef 1)
  br label %173

172:                                              ; preds = %163
  store i32 -1, ptr %20, align 4, !tbaa !52
  br label %173

173:                                              ; preds = %172, %166
  br label %174

174:                                              ; preds = %173, %152
  br label %175

175:                                              ; preds = %174, %130
  %176 = load i32, ptr %20, align 4, !tbaa !52
  %177 = sitofp i32 %176 to float
  %178 = load float, ptr %19, align 4, !tbaa !58
  %179 = fsub nsz float %177, %178
  %180 = load ptr, ptr %16, align 8, !tbaa !121
  %181 = getelementptr inbounds nuw %struct.CeltBlock, ptr %180, i32 0, i32 2
  %182 = load i32, ptr %13, align 4, !tbaa !52
  %183 = sext i32 %182 to i64
  %184 = getelementptr inbounds [21 x float], ptr %181, i64 0, i64 %183
  store float %179, ptr %184, align 4, !tbaa !58
  %185 = load float, ptr %10, align 4, !tbaa !58
  %186 = load i32, ptr %20, align 4, !tbaa !52
  %187 = sitofp i32 %186 to float
  %188 = load i32, ptr %15, align 4, !tbaa !52
  %189 = sext i32 %188 to i64
  %190 = getelementptr inbounds [2 x float], ptr %11, i64 0, i64 %189
  %191 = load float, ptr %190, align 4, !tbaa !58
  %192 = call nsz float @llvm.fmuladd.f32(float %185, float %187, float %191)
  store float %192, ptr %190, align 4, !tbaa !58
  call void @llvm.lifetime.end.p0(i64 4, ptr %20) #11
  call void @llvm.lifetime.end.p0(i64 4, ptr %19) #11
  call void @llvm.lifetime.end.p0(i64 4, ptr %18) #11
  call void @llvm.lifetime.end.p0(i64 4, ptr %17) #11
  call void @llvm.lifetime.end.p0(i64 8, ptr %16) #11
  br label %193

193:                                              ; preds = %175
  %194 = load i32, ptr %15, align 4, !tbaa !52
  %195 = add nsw i32 %194, 1
  store i32 %195, ptr %15, align 4, !tbaa !52
  br label %70, !llvm.loop !174

196:                                              ; preds = %76
  br label %197

197:                                              ; preds = %196
  %198 = load i32, ptr %13, align 4, !tbaa !52
  %199 = add nsw i32 %198, 1
  store i32 %199, ptr %13, align 4, !tbaa !52
  br label %62, !llvm.loop !175

200:                                              ; preds = %68
  call void @llvm.lifetime.end.p0(i64 8, ptr %12) #11
  call void @llvm.lifetime.end.p0(i64 8, ptr %11) #11
  call void @llvm.lifetime.end.p0(i64 4, ptr %10) #11
  call void @llvm.lifetime.end.p0(i64 4, ptr %9) #11
  ret void
}