; Function Attrs: nounwind uwtable
define internal fastcc void @exp_quant_coarse(ptr noundef %0, ptr noundef captures(none) %1, ptr noundef readonly captures(none) %2, i32 noundef range(i32 0, 2) %3) unnamed_addr #1 {
  %5 = alloca [2 x float], align 8
  %6 = alloca i32, align 4
  call void @llvm.lifetime.start.p0(i64 8, ptr nonnull %5) #9
  store i64 0, ptr %5, align 8
  %7 = getelementptr inbounds nuw i8, ptr %1, i64 33908
  %8 = load i32, ptr %7, align 4, !tbaa !109
  %9 = zext i32 %8 to i64
  %10 = zext nneg i32 %3 to i64
  %11 = getelementptr inbounds nuw [4 x [2 x [42 x i8]]], ptr @ff_celt_coarse_energy_dist, i64 0, i64 %9, i64 %10
  %12 = getelementptr inbounds nuw i8, ptr %0, i64 64
  %13 = load i32, ptr %12, align 8, !tbaa !104
  %14 = getelementptr inbounds nuw i8, ptr %0, i64 56
  %15 = load i32, ptr %14, align 8, !tbaa !108
  %.not.i = icmp ult i32 %15, 65536
  %16 = lshr i32 %15, 16
  %spec.select.i = select i1 %.not.i, i32 %15, i32 %16
  %spec.select12.i = select i1 %.not.i, i32 0, i32 16
  %.not11.i = icmp samesign ult i32 %spec.select.i, 256
  %17 = lshr i32 %spec.select.i, 8
  %18 = or disjoint i32 %spec.select12.i, 8
  %.110.i = select i1 %.not11.i, i32 %spec.select.i, i32 %17
  %.1.i = select i1 %.not11.i, i32 %spec.select12.i, i32 %18
  %19 = zext nneg i32 %.110.i to i64
  %20 = getelementptr inbounds nuw [256 x i8], ptr @ff_log2_tab, i64 0, i64 %19
  %21 = load i8, ptr %20, align 1, !tbaa !48
  %22 = zext i8 %21 to i32
  %23 = add nuw nsw i32 %.1.i, %22
  %24 = xor i32 %23, -1
  %25 = add i32 %13, 3
  %26 = add i32 %25, %24
  %27 = getelementptr inbounds nuw i8, ptr %1, i64 34084
  %28 = load i32, ptr %27, align 4, !tbaa !95
  %.not = icmp ugt i32 %26, %28
  br i1 %.not, label %.critedge, label %29

29:                                               ; preds = %4
  tail call void @ff_opus_rc_enc_log(ptr noundef nonnull %0, i32 noundef %3, i32 noundef 3) #9
  %30 = icmp eq i32 %3, 0
  br i1 %30, label %..critedge_crit_edge, label %35

..critedge_crit_edge:                             ; preds = %29
  %.pre = load i32, ptr %7, align 4, !tbaa !109
  %.pre74 = zext i32 %.pre to i64
  br label %.critedge

.critedge:                                        ; preds = %..critedge_crit_edge, %4
  %.pre-phi = phi i64 [ %.pre74, %..critedge_crit_edge ], [ %9, %4 ]
  %31 = getelementptr inbounds nuw [0 x float], ptr @ff_celt_alpha_coef, i64 0, i64 %.pre-phi
  %32 = load float, ptr %31, align 4, !tbaa !56
  %33 = getelementptr inbounds nuw [0 x float], ptr @ff_celt_beta_coef, i64 0, i64 %.pre-phi
  %34 = load float, ptr %33, align 4, !tbaa !56
  br label %35

35:                                               ; preds = %29, %.critedge
  %.047 = phi nsz float [ %34, %.critedge ], [ 0x3FEB334000000000, %29 ]
  %.046 = phi nsz float [ %32, %.critedge ], [ 0.000000e+00, %29 ]
  %36 = getelementptr inbounds nuw i8, ptr %1, i64 33912
  %37 = load i32, ptr %36, align 8, !tbaa !103
  %38 = getelementptr inbounds nuw i8, ptr %1, i64 33916
  %39 = load i32, ptr %38, align 4, !tbaa !114
  %40 = icmp slt i32 %37, %39
  br i1 %40, label %.preheader.lr.ph, label %._crit_edge66

.preheader.lr.ph:                                 ; preds = %35
  %41 = getelementptr inbounds nuw i8, ptr %1, i64 33896
  %42 = getelementptr inbounds nuw i8, ptr %1, i64 80
  %43 = load i32, ptr %41, align 8, !tbaa !82
  %44 = icmp sgt i32 %43, 0
  br i1 %44, label %.preheader.preheader, label %._crit_edge66

.preheader.preheader:                             ; preds = %.preheader.lr.ph
  %45 = sext i32 %37 to i64
  br label %.preheader

.preheader:                                       ; preds = %.preheader.preheader, %._crit_edge
  %46 = phi i32 [ %39, %.preheader.preheader ], [ %54, %._crit_edge ]
  %47 = phi i32 [ %43, %.preheader.preheader ], [ %55, %._crit_edge ]
  %indvars.iv70 = phi i64 [ %45, %.preheader.preheader ], [ %indvars.iv.next71, %._crit_edge ]
  %48 = icmp sgt i32 %47, 0
  br i1 %48, label %.lr.ph, label %._crit_edge

.lr.ph:                                           ; preds = %.preheader
  %49 = trunc nsw i64 %indvars.iv70 to i32
  %50 = shl i32 %49, 1
  %51 = sext i32 %50 to i64
  %52 = getelementptr inbounds i8, ptr %11, i64 %51
  %53 = getelementptr i8, ptr %52, i64 1
  br label %58

._crit_edge66:                                    ; preds = %._crit_edge, %.preheader.lr.ph, %35
  call void @llvm.lifetime.end.p0(i64 8, ptr nonnull %5) #9
  ret void

._crit_edge.loopexit:                             ; preds = %104
  %.pre73 = load i32, ptr %38, align 4, !tbaa !114
  br label %._crit_edge

._crit_edge:                                      ; preds = %._crit_edge.loopexit, %.preheader
  %54 = phi i32 [ %.pre73, %._crit_edge.loopexit ], [ %46, %.preheader ]
  %55 = phi i32 [ %111, %._crit_edge.loopexit ], [ %47, %.preheader ]
  %indvars.iv.next71 = add nsw i64 %indvars.iv70, 1
  %56 = sext i32 %54 to i64
  %57 = icmp slt i64 %indvars.iv.next71, %56
  br i1 %57, label %.preheader, label %._crit_edge66, !llvm.loop !161

58:                                               ; preds = %.lr.ph, %104
  %indvars.iv = phi i64 [ 0, %.lr.ph ], [ %indvars.iv.next, %104 ]
  %59 = getelementptr inbounds nuw [2 x %struct.CeltBlock], ptr %42, i64 0, i64 %indvars.iv
  %60 = load i32, ptr %27, align 4, !tbaa !95
  %61 = load i32, ptr %12, align 8, !tbaa !104
  %62 = load i32, ptr %14, align 8, !tbaa !108
  %.not.i55 = icmp ult i32 %62, 65536
  %63 = lshr i32 %62, 16
  %spec.select.i56 = select i1 %.not.i55, i32 %62, i32 %63
  %spec.select12.i57 = select i1 %.not.i55, i32 0, i32 16
  %.not11.i58 = icmp samesign ult i32 %spec.select.i56, 256
  %64 = lshr i32 %spec.select.i56, 8
  %65 = or disjoint i32 %spec.select12.i57, 8
  %.110.i59 = select i1 %.not11.i58, i32 %spec.select.i56, i32 %64
  %.1.i60 = select i1 %.not11.i58, i32 %spec.select12.i57, i32 %65
  %66 = zext nneg i32 %.110.i59 to i64
  %67 = getelementptr inbounds nuw [256 x i8], ptr @ff_log2_tab, i64 0, i64 %66
  %68 = load i8, ptr %67, align 1, !tbaa !48
  %69 = zext i8 %68 to i32
  %70 = add nuw nsw i32 %.1.i60, %69
  %.neg67 = add nuw nsw i32 %70, 1
  %.neg63 = sub i32 %60, %61
  %71 = add i32 %.neg63, %.neg67
  %72 = getelementptr inbounds [21 x float], ptr %2, i64 %indvars.iv, i64 %indvars.iv70
  %73 = load float, ptr %72, align 4, !tbaa !56
  %74 = fcmp nsz olt float %73, -9.000000e+00
  %75 = getelementptr inbounds [21 x float], ptr %59, i64 0, i64 %indvars.iv70
  %76 = load float, ptr %75, align 4, !tbaa !56
  %77 = getelementptr inbounds nuw [2 x float], ptr %5, i64 0, i64 %indvars.iv
  %78 = load float, ptr %77, align 4, !tbaa !56
  %79 = fsub nsz float %76, %78
  %.neg = fneg nsz float %73
  %80 = select nsz i1 %74, float 9.000000e+00, float %.neg
  %81 = call nsz float @llvm.fmuladd.f32(float %80, float %.046, float %79)
  call void @llvm.lifetime.start.p0(i64 4, ptr nonnull %6) #9
  %82 = call i64 @llvm.lrint.i64.f32(float %81)
  %83 = trunc i64 %82 to i32
  store i32 %83, ptr %6, align 4, !tbaa !113
  %84 = icmp sgt i32 %71, 14
  br i1 %84, label %85, label %92

85:                                               ; preds = %58
  %86 = load i8, ptr %52, align 2, !tbaa !48
  %87 = zext i8 %86 to i32
  %88 = shl nuw nsw i32 %87, 7
  %89 = load i8, ptr %53, align 1, !tbaa !48
  %90 = zext i8 %89 to i32
  %91 = shl nuw nsw i32 %90, 6
  call void @ff_opus_rc_enc_laplace(ptr noundef nonnull %0, ptr noundef nonnull %6, i32 noundef %88, i32 noundef %91) #9
  br label %104

92:                                               ; preds = %58
  %93 = icmp sgt i32 %71, 1
  br i1 %93, label %94, label %99

94:                                               ; preds = %92
  %95 = call i32 @llvm.smax.i32(i32 %83, i32 -1)
  %.0.i54 = call i32 @llvm.smin.i32(i32 %95, i32 1)
  store i32 %.0.i54, ptr %6, align 4, !tbaa !113
  %96 = shl nsw i32 %.0.i54, 1
  %isneg = icmp slt i32 %83, 0
  %97 = select i1 %isneg, i32 3, i32 0
  %98 = add nsw i32 %96, %97
  call void @ff_opus_rc_enc_cdf(ptr noundef nonnull %0, i32 noundef %98, ptr noundef nonnull @ff_celt_model_tapset) #9
  br label %104

99:                                               ; preds = %92
  %100 = icmp eq i32 %71, 1
  br i1 %100, label %101, label %103

101:                                              ; preds = %99
  %.lobit = ashr i32 %83, 31
  store i32 %.lobit, ptr %6, align 4, !tbaa !113
  %102 = lshr i32 %83, 31
  call void @ff_opus_rc_enc_log(ptr noundef nonnull %0, i32 noundef %102, i32 noundef 1) #9
  br label %104

103:                                              ; preds = %99
  store i32 -1, ptr %6, align 4, !tbaa !113
  br label %104

104:                                              ; preds = %94, %103, %101, %85
  %105 = load i32, ptr %6, align 4, !tbaa !113
  %106 = sitofp i32 %105 to float
  %107 = fsub nsz float %106, %81
  %108 = getelementptr inbounds nuw i8, ptr %59, i64 168
  %109 = getelementptr inbounds [21 x float], ptr %108, i64 0, i64 %indvars.iv70
  store float %107, ptr %109, align 4, !tbaa !56
  %110 = call nsz float @llvm.fmuladd.f32(float %.047, float %106, float %78)
  store float %110, ptr %77, align 4, !tbaa !56
  call void @llvm.lifetime.end.p0(i64 4, ptr nonnull %6) #9
  %indvars.iv.next = add nuw nsw i64 %indvars.iv, 1
  %111 = load i32, ptr %41, align 8, !tbaa !82
  %112 = sext i32 %111 to i64
  %113 = icmp slt i64 %indvars.iv.next, %112
  br i1 %113, label %58, label %._crit_edge.loopexit, !llvm.loop !162
}